; Function Attrs: nounwind uwtable
define internal i32 @test_single_key_enc_iter(i32 noundef %0) #1 {
  %2 = alloca %struct.pkcs12_enc, align 8
  call void @llvm.lifetime.start.p0(i64 24, ptr nonnull %2) #4
  store i32 146, ptr %2, align 8, !tbaa !15
  %3 = getelementptr inbounds nuw i8, ptr %2, i64 8
  store ptr @.str.47, ptr %3, align 8, !tbaa !18
  %4 = sext i32 %0 to i64
  %5 = getelementptr inbounds [2 x i32], ptr @iters, i64 0, i64 %4
  %6 = load i32, ptr %5, align 4, !tbaa !13
  %7 = getelementptr inbounds nuw i8, ptr %2, i64 16
  store i32 %6, ptr %7, align 8, !tbaa !19
  %8 = call fastcc i32 @test_single_key(ptr noundef %2)
  call void @llvm.lifetime.end.p0(i64 24, ptr nonnull %2) #4
  ret i32 %8
}